target datalayout = "e-m:e-p270:32:32-p271:32:32-p272:64:64-i64:64-i128:128-f80:128-n8:16:32:64-S128"
target triple = "x86_64-pc-linux-gnu"

%struct.GCtab = type { %struct.GCRef, i8, i8, i8, i8, %struct.MRef, %struct.GCRef, %struct.GCRef, %struct.MRef, i32, i32, %struct.MRef }
%struct.GCRef = type { i64 }
%struct.MRef = type { i64 }
%union.TValue = type { i64 }

; Function Attrs: nounwind uwtable
define hidden i32 @lj_tab_len(ptr noundef %0) #0 {
  %2 = alloca i32, align 4
  %3 = alloca ptr, align 8
  %4 = alloca i64, align 8
  %5 = alloca i64, align 8
  %6 = alloca i64, align 8
  %7 = alloca i32, align 4
  store ptr %0, ptr %3, align 8, !tbaa !11
  call void @llvm.lifetime.start.p0(i64 8, ptr %4) #9
  %8 = load ptr, ptr %3, align 8, !tbaa !11
  %9 = getelementptr inbounds nuw %struct.GCtab, ptr %8, i32 0, i32 9
  %10 = load i32, ptr %9, align 8, !tbaa !23
  %11 = zext i32 %10 to i64
  store i64 %11, ptr %4, align 8, !tbaa !39
  %12 = load i64, ptr %4, align 8, !tbaa !39
  %13 = icmp ne i64 %12, 0
  br i1 %13, label %14, label %17

14:                                               ; preds = %1
  %15 = load i64, ptr %4, align 8, !tbaa !39
  %16 = add i64 %15, -1
  store i64 %16, ptr %4, align 8, !tbaa !39
  br label %17

17:                                               ; preds = %14, %1
  %18 = load i64, ptr %4, align 8, !tbaa !39
  %19 = icmp ugt i64 %18, 0
  br i1 %19, label %20, label %64

20:                                               ; preds = %17
  %21 = load ptr, ptr %3, align 8, !tbaa !11
  %22 = getelementptr inbounds nuw %struct.GCtab, ptr %21, i32 0, i32 5
  %23 = getelementptr inbounds nuw %struct.MRef, ptr %22, i32 0, i32 0
  %24 = load i64, ptr %23, align 8, !tbaa !21
  %25 = inttoptr i64 %24 to ptr
  %26 = load i64, ptr %4, align 8, !tbaa !39
  %27 = getelementptr inbounds nuw %union.TValue, ptr %25, i64 %26
  %28 = load i64, ptr %27, align 8, !tbaa !32
  %29 = icmp eq i64 %28, -1
  %30 = xor i1 %29, true
  %31 = xor i1 %30, true
  %32 = zext i1 %31 to i32
  %33 = sext i32 %32 to i64
  %34 = call i64 @llvm.expect.i64(i64 %33, i64 1)
  %35 = icmp ne i64 %34, 0
  br i1 %35, label %36, label %64

36:                                               ; preds = %20
  call void @llvm.lifetime.start.p0(i64 8, ptr %5) #9
  store i64 0, ptr %5, align 8, !tbaa !39
  br label %37

37:                                               ; preds = %60, %36
  %38 = load i64, ptr %4, align 8, !tbaa !39
  %39 = load i64, ptr %5, align 8, !tbaa !39
  %40 = sub i64 %38, %39
  %41 = icmp ugt i64 %40, 1
  br i1 %41, label %42, label %61

42:                                               ; preds = %37
  call void @llvm.lifetime.start.p0(i64 8, ptr %6) #9
  %43 = load i64, ptr %5, align 8, !tbaa !39
  %44 = load i64, ptr %4, align 8, !tbaa !39
  %45 = add i64 %43, %44
  %46 = lshr i64 %45, 1
  store i64 %46, ptr %6, align 8, !tbaa !39
  %47 = load ptr, ptr %3, align 8, !tbaa !11
  %48 = getelementptr inbounds nuw %struct.GCtab, ptr %47, i32 0, i32 5
  %49 = getelementptr inbounds nuw %struct.MRef, ptr %48, i32 0, i32 0
  %50 = load i64, ptr %49, align 8, !tbaa !21
  %51 = inttoptr i64 %50 to ptr
  %52 = load i64, ptr %6, align 8, !tbaa !39
  %53 = getelementptr inbounds nuw %union.TValue, ptr %51, i64 %52
  %54 = load i64, ptr %53, align 8, !tbaa !32
  %55 = icmp eq i64 %54, -1
  br i1 %55, label %56, label %58

56:                                               ; preds = %42
  %57 = load i64, ptr %6, align 8, !tbaa !39
  store i64 %57, ptr %4, align 8, !tbaa !39
  br label %60

58:                                               ; preds = %42
  %59 = load i64, ptr %6, align 8, !tbaa !39
  store i64 %59, ptr %5, align 8, !tbaa !39
  br label %60

60:                                               ; preds = %58, %56
  call void @llvm.lifetime.end.p0(i64 8, ptr %6) #9
  br label %37, !llvm.loop !85

61:                                               ; preds = %37
  %62 = load i64, ptr %5, align 8, !tbaa !39
  %63 = trunc i64 %62 to i32
  store i32 %63, ptr %2, align 4
  store i32 1, ptr %7, align 4
  call void @llvm.lifetime.end.p0(i64 8, ptr %5) #9
  br label %78

64:                                               ; preds = %20, %17
  %65 = load ptr, ptr %3, align 8, !tbaa !11
  %66 = getelementptr inbounds nuw %struct.GCtab, ptr %65, i32 0, i32 10
  %67 = load i32, ptr %66, align 4, !tbaa !13
  %68 = icmp ne i32 %67, 0
  br i1 %68, label %69, label %73

69:                                               ; preds = %64
  %70 = load ptr, ptr %3, align 8, !tbaa !11
  %71 = load i64, ptr %4, align 8, !tbaa !39
  %72 = call i32 @tab_len_slow(ptr noundef %70, i64 noundef %71)
  br label %76

73:                                               ; preds = %64
  %74 = load i64, ptr %4, align 8, !tbaa !39
  %75 = trunc i64 %74 to i32
  br label %76

76:                                               ; preds = %73, %69
  %77 = phi i32 [ %72, %69 ], [ %75, %73 ]
  store i32 %77, ptr %2, align 4
  store i32 1, ptr %7, align 4
  br label %78

78:                                               ; preds = %76, %61
  call void @llvm.lifetime.end.p0(i64 8, ptr %4) #9
  %79 = load i32, ptr %2, align 4
  ret i32 %79
}