; Function Attrs: nofree norecurse nosync nounwind memory(read, inaccessiblemem: none) uwtable
define hidden i32 @lj_tab_len(ptr noundef readonly captures(none) %0) local_unnamed_addr #7 {
  %2 = getelementptr inbounds nuw i8, ptr %0, i64 48
  %3 = load i32, ptr %2, align 8, !tbaa !4
  %.not = icmp eq i32 %3, 0
  %4 = zext i32 %3 to i64
  %5 = add nsw i64 %4, -1
  %.020 = select i1 %.not, i64 0, i64 %5
  %.not24 = icmp eq i64 %.020, 0
  br i1 %.not24, label %21, label %6

6:                                                ; preds = %1
  %7 = getelementptr inbounds nuw i8, ptr %0, i64 16
  %8 = load i64, ptr %7, align 8, !tbaa !12
  %9 = inttoptr i64 %8 to ptr
  %10 = getelementptr inbounds nuw %union.TValue, ptr %9, i64 %.020
  %11 = load i64, ptr %10, align 8, !tbaa !13
  %12 = icmp eq i64 %11, -1
  br i1 %12, label %.preheader, label %21, !prof !63

.preheader:                                       ; preds = %6
  %.not28 = icmp eq i64 %.020, 1
  br i1 %.not28, label %._crit_edge, label %.lr.ph

.lr.ph:                                           ; preds = %.preheader, %.lr.ph
  %.01927 = phi i64 [ %.019., %.lr.ph ], [ 0, %.preheader ]
  %.12126 = phi i64 [ %..121, %.lr.ph ], [ %.020, %.preheader ]
  %13 = add i64 %.01927, %.12126
  %14 = lshr i64 %13, 1
  %15 = getelementptr inbounds nuw %union.TValue, ptr %9, i64 %14
  %16 = load i64, ptr %15, align 8, !tbaa !13
  %17 = icmp eq i64 %16, -1
  %..121 = select i1 %17, i64 %14, i64 %.12126
  %.019. = select i1 %17, i64 %.01927, i64 %14
  %18 = sub nsw i64 %..121, %.019.
  %19 = icmp ugt i64 %18, 1
  br i1 %19, label %.lr.ph, label %._crit_edge.loopexit, !llvm.loop !69

._crit_edge.loopexit:                             ; preds = %.lr.ph
  %20 = trunc i64 %.019. to i32
  br label %._crit_edge

21:                                               ; preds = %6, %1
  %22 = getelementptr inbounds nuw i8, ptr %0, i64 52
  %23 = load i32, ptr %22, align 4, !tbaa !14
  %.not25 = icmp eq i32 %23, 0
  br i1 %.not25, label %26, label %24

24:                                               ; preds = %21
  %25 = tail call fastcc i32 @tab_len_slow(ptr noundef nonnull %0, i64 noundef %.020)
  br label %._crit_edge

26:                                               ; preds = %21
  %27 = trunc nuw i64 %.020 to i32
  br label %._crit_edge

._crit_edge:                                      ; preds = %.preheader, %._crit_edge.loopexit, %24, %26
  %.0 = phi i32 [ %25, %24 ], [ %27, %26 ], [ 0, %.preheader ], [ %20, %._crit_edge.loopexit ]
  ret i32 %.0
}